target datalayout = "e-m:e-p270:32:32-p271:32:32-p272:64:64-i64:64-i128:128-f80:128-n8:16:32:64-S128"
target triple = "x86_64-pc-linux-gnu"

%struct.evthread_lock_callbacks = type { i32, i32, ptr, ptr, ptr, ptr }
%struct.evbuffer_chain = type { ptr, i64, i64, i64, i32, i32, ptr }
%struct.evbuffer = type { ptr, ptr, ptr, i64, i64, i64, i64, ptr, i8, i32, ptr, i32, %struct.event_callback, %struct.evbuffer_cb_queue, ptr }
%struct.event_callback = type { %struct.anon, i16, i8, i8, %union.anon, ptr }
%struct.anon = type { ptr, ptr }
%union.anon = type { ptr }
%struct.evbuffer_cb_queue = type { ptr }
%struct.__va_list_tag = type { i32, i32, ptr, ptr }

@evthread_lock_fns_ = external global %struct.evthread_lock_callbacks, align 8
@evthread_lock_debugging_enabled_ = external global i32, align 4

; Function Attrs: nounwind uwtable
define internal i32 @advance_last_with_data(ptr noundef %0) #0 {
  %2 = alloca i32, align 4
  %3 = alloca ptr, align 8
  %4 = alloca i32, align 4
  %5 = alloca ptr, align 8
  %6 = alloca i32, align 4
  store ptr %0, ptr %3, align 8
  call void @llvm.lifetime.start.p0(i64 4, ptr %4) #10
  store i32 0, ptr %4, align 4
  call void @llvm.lifetime.start.p0(i64 8, ptr %5) #10
  %7 = load ptr, ptr %3, align 8
  %8 = getelementptr inbounds nuw %struct.evbuffer, ptr %7, i32 0, i32 2
  %9 = load ptr, ptr %8, align 8
  store ptr %9, ptr %5, align 8
  br label %10

10:                                               ; preds = %1
  %11 = load ptr, ptr %3, align 8
  %12 = getelementptr inbounds nuw %struct.evbuffer, ptr %11, i32 0, i32 7
  %13 = load ptr, ptr %12, align 8
  %14 = icmp ne ptr %13, null
  br i1 %14, label %15, label %22

15:                                               ; preds = %10
  %16 = load i32, ptr @evthread_lock_debugging_enabled_, align 4
  %17 = icmp ne i32 %16, 0
  br i1 %17, label %18, label %22

18:                                               ; preds = %15
  br label %19

19:                                               ; preds = %18
  br label %20

20:                                               ; preds = %19
  br label %21

21:                                               ; preds = %20
  br label %22

22:                                               ; preds = %21, %15, %10
  br label %23

23:                                               ; preds = %22
  br label %24

24:                                               ; preds = %23
  %25 = load ptr, ptr %5, align 8
  %26 = load ptr, ptr %25, align 8
  %27 = icmp ne ptr %26, null
  br i1 %27, label %29, label %28

28:                                               ; preds = %24
  store i32 0, ptr %2, align 4
  store i32 1, ptr %6, align 4
  br label %54

29:                                               ; preds = %24
  br label %30

30:                                               ; preds = %49, %29
  %31 = load ptr, ptr %5, align 8
  %32 = load ptr, ptr %31, align 8
  %33 = getelementptr inbounds nuw %struct.evbuffer_chain, ptr %32, i32 0, i32 0
  %34 = load ptr, ptr %33, align 8
  %35 = icmp ne ptr %34, null
  br i1 %35, label %36, label %52

36:                                               ; preds = %30
  %37 = load ptr, ptr %5, align 8
  %38 = load ptr, ptr %37, align 8
  %39 = getelementptr inbounds nuw %struct.evbuffer_chain, ptr %38, i32 0, i32 0
  store ptr %39, ptr %5, align 8
  %40 = load ptr, ptr %5, align 8
  %41 = load ptr, ptr %40, align 8
  %42 = getelementptr inbounds nuw %struct.evbuffer_chain, ptr %41, i32 0, i32 3
  %43 = load i64, ptr %42, align 8
  %44 = icmp ne i64 %43, 0
  br i1 %44, label %45, label %49

45:                                               ; preds = %36
  %46 = load ptr, ptr %5, align 8
  %47 = load ptr, ptr %3, align 8
  %48 = getelementptr inbounds nuw %struct.evbuffer, ptr %47, i32 0, i32 2
  store ptr %46, ptr %48, align 8
  br label %49

49:                                               ; preds = %45, %36
  %50 = load i32, ptr %4, align 4
  %51 = add nsw i32 %50, 1
  store i32 %51, ptr %4, align 4
  br label %30, !llvm.loop !14

52:                                               ; preds = %30
  %53 = load i32, ptr %4, align 4
  store i32 %53, ptr %2, align 4
  store i32 1, ptr %6, align 4
  br label %54

54:                                               ; preds = %52, %28
  call void @llvm.lifetime.end.p0(i64 8, ptr %5) #10
  call void @llvm.lifetime.end.p0(i64 4, ptr %4) #10
  %55 = load i32, ptr %2, align 4
  ret i32 %55
}

; Function Attrs: nounwind uwtable
define i32 @evbuffer_add_vprintf(ptr noundef %0, ptr noundef %1, ptr noundef %2) #0 {
  %4 = alloca ptr, align 8
  %5 = alloca ptr, align 8
  %6 = alloca ptr, align 8
  %7 = alloca ptr, align 8
  %8 = alloca i64, align 8
  %9 = alloca i32, align 4
  %10 = alloca i32, align 4
  %11 = alloca [1 x %struct.__va_list_tag], align 16
  %12 = alloca ptr, align 8
  store ptr %0, ptr %4, align 8
  store ptr %1, ptr %5, align 8
  store ptr %2, ptr %6, align 8
  call void @llvm.lifetime.start.p0(i64 8, ptr %7) #10
  call void @llvm.lifetime.start.p0(i64 8, ptr %8) #10
  call void @llvm.lifetime.start.p0(i64 4, ptr %9) #10
  call void @llvm.lifetime.start.p0(i64 4, ptr %10) #10
  store i32 -1, ptr %10, align 4
  call void @llvm.lifetime.start.p0(i64 24, ptr %11) #10
  call void @llvm.lifetime.start.p0(i64 8, ptr %12) #10
  br label %13

13:                                               ; preds = %3
  br label %14

14:                                               ; preds = %13
  %15 = load ptr, ptr %4, align 8
  %16 = getelementptr inbounds nuw %struct.evbuffer, ptr %15, i32 0, i32 7
  %17 = load ptr, ptr %16, align 8
  %18 = icmp ne ptr %17, null
  br i1 %18, label %19, label %25

19:                                               ; preds = %14
  %20 = load ptr, ptr getelementptr inbounds nuw (%struct.evthread_lock_callbacks, ptr @evthread_lock_fns_, i32 0, i32 4), align 8
  %21 = load ptr, ptr %4, align 8
  %22 = getelementptr inbounds nuw %struct.evbuffer, ptr %21, i32 0, i32 7
  %23 = load ptr, ptr %22, align 8
  %24 = call i32 %20(i32 noundef 0, ptr noundef %23)
  br label %25

25:                                               ; preds = %19, %14
  br label %26

26:                                               ; preds = %25
  br label %27

27:                                               ; preds = %26
  br label %28

28:                                               ; preds = %27
  br label %29

29:                                               ; preds = %28
  %30 = load ptr, ptr %4, align 8
  %31 = getelementptr inbounds nuw %struct.evbuffer, ptr %30, i32 0, i32 8
  %32 = load i8, ptr %31, align 8
  %33 = lshr i8 %32, 2
  %34 = and i8 %33, 1
  %35 = zext i8 %34 to i32
  %36 = icmp ne i32 %35, 0
  br i1 %36, label %37, label %38

37:                                               ; preds = %29
  br label %124

38:                                               ; preds = %29
  %39 = load ptr, ptr %4, align 8
  %40 = call ptr @evbuffer_expand_singlechain(ptr noundef %39, i64 noundef 64)
  store ptr %40, ptr %12, align 8
  %41 = icmp eq ptr %40, null
  br i1 %41, label %42, label %43

42:                                               ; preds = %38
  br label %124

43:                                               ; preds = %38
  br label %44

44:                                               ; preds = %123, %43
  %45 = load ptr, ptr %12, align 8
  %46 = getelementptr inbounds nuw %struct.evbuffer_chain, ptr %45, i32 0, i32 6
  %47 = load ptr, ptr %46, align 8
  %48 = load ptr, ptr %12, align 8
  %49 = getelementptr inbounds nuw %struct.evbuffer_chain, ptr %48, i32 0, i32 2
  %50 = load i64, ptr %49, align 8
  %51 = getelementptr inbounds i8, ptr %47, i64 %50
  %52 = load ptr, ptr %12, align 8
  %53 = getelementptr inbounds nuw %struct.evbuffer_chain, ptr %52, i32 0, i32 3
  %54 = load i64, ptr %53, align 8
  %55 = getelementptr inbounds nuw i8, ptr %51, i64 %54
  store ptr %55, ptr %7, align 8
  %56 = load ptr, ptr %12, align 8
  %57 = getelementptr inbounds nuw %struct.evbuffer_chain, ptr %56, i32 0, i32 4
  %58 = load i32, ptr %57, align 8
  %59 = and i32 %58, 8
  %60 = icmp ne i32 %59, 0
  br i1 %60, label %61, label %62

61:                                               ; preds = %44
  br label %74

62:                                               ; preds = %44
  %63 = load ptr, ptr %12, align 8
  %64 = getelementptr inbounds nuw %struct.evbuffer_chain, ptr %63, i32 0, i32 1
  %65 = load i64, ptr %64, align 8
  %66 = load ptr, ptr %12, align 8
  %67 = getelementptr inbounds nuw %struct.evbuffer_chain, ptr %66, i32 0, i32 2
  %68 = load i64, ptr %67, align 8
  %69 = load ptr, ptr %12, align 8
  %70 = getelementptr inbounds nuw %struct.evbuffer_chain, ptr %69, i32 0, i32 3
  %71 = load i64, ptr %70, align 8
  %72 = add i64 %68, %71
  %73 = sub i64 %65, %72
  br label %74

74:                                               ; preds = %62, %61
  %75 = phi i64 [ 0, %61 ], [ %73, %62 ]
  store i64 %75, ptr %8, align 8
  %76 = getelementptr inbounds [1 x %struct.__va_list_tag], ptr %11, i64 0, i64 0
  %77 = load ptr, ptr %6, align 8
  call void @llvm.va_copy.p0(ptr %76, ptr %77)
  %78 = load ptr, ptr %7, align 8
  %79 = load i64, ptr %8, align 8
  %80 = load ptr, ptr %5, align 8
  %81 = getelementptr inbounds [1 x %struct.__va_list_tag], ptr %11, i64 0, i64 0
  %82 = call i32 @evutil_vsnprintf(ptr noundef %78, i64 noundef %79, ptr noundef %80, ptr noundef %81)
  store i32 %82, ptr %9, align 4
  %83 = getelementptr inbounds [1 x %struct.__va_list_tag], ptr %11, i64 0, i64 0
  call void @llvm.va_end.p0(ptr %83)
  %84 = load i32, ptr %9, align 4
  %85 = icmp slt i32 %84, 0
  br i1 %85, label %86, label %87

86:                                               ; preds = %74
  br label %124

87:                                               ; preds = %74
  %88 = load i32, ptr %9, align 4
  %89 = sext i32 %88 to i64
  %90 = load i64, ptr %8, align 8
  %91 = icmp ult i64 %89, %90
  br i1 %91, label %92, label %115

92:                                               ; preds = %87
  %93 = load i32, ptr %9, align 4
  %94 = sext i32 %93 to i64
  %95 = load ptr, ptr %12, align 8
  %96 = getelementptr inbounds nuw %struct.evbuffer_chain, ptr %95, i32 0, i32 3
  %97 = load i64, ptr %96, align 8
  %98 = add i64 %97, %94
  store i64 %98, ptr %96, align 8
  %99 = load i32, ptr %9, align 4
  %100 = sext i32 %99 to i64
  %101 = load ptr, ptr %4, align 8
  %102 = getelementptr inbounds nuw %struct.evbuffer, ptr %101, i32 0, i32 3
  %103 = load i64, ptr %102, align 8
  %104 = add i64 %103, %100
  store i64 %104, ptr %102, align 8
  %105 = load i32, ptr %9, align 4
  %106 = sext i32 %105 to i64
  %107 = load ptr, ptr %4, align 8
  %108 = getelementptr inbounds nuw %struct.evbuffer, ptr %107, i32 0, i32 5
  %109 = load i64, ptr %108, align 8
  %110 = add i64 %109, %106
  store i64 %110, ptr %108, align 8
  %111 = load ptr, ptr %4, align 8
  %112 = call i32 @advance_last_with_data(ptr noundef %111)
  %113 = load ptr, ptr %4, align 8
  call void @evbuffer_invoke_callbacks_(ptr noundef %113)
  %114 = load i32, ptr %9, align 4
  store i32 %114, ptr %10, align 4
  br label %124

115:                                              ; preds = %87
  %116 = load ptr, ptr %4, align 8
  %117 = load i32, ptr %9, align 4
  %118 = add nsw i32 %117, 1
  %119 = sext i32 %118 to i64
  %120 = call ptr @evbuffer_expand_singlechain(ptr noundef %116, i64 noundef %119)
  store ptr %120, ptr %12, align 8
  %121 = icmp eq ptr %120, null
  br i1 %121, label %122, label %123

122:                                              ; preds = %115
  br label %124

123:                                              ; preds = %115
  br label %44

124:                                              ; preds = %122, %92, %86, %42, %37
  br label %125

125:                                              ; preds = %124
  br label %126

126:                                              ; preds = %125
  %127 = load ptr, ptr %4, align 8
  %128 = getelementptr inbounds nuw %struct.evbuffer, ptr %127, i32 0, i32 7
  %129 = load ptr, ptr %128, align 8
  %130 = icmp ne ptr %129, null
  br i1 %130, label %131, label %137

131:                                              ; preds = %126
  %132 = load ptr, ptr getelementptr inbounds nuw (%struct.evthread_lock_callbacks, ptr @evthread_lock_fns_, i32 0, i32 5), align 8
  %133 = load ptr, ptr %4, align 8
  %134 = getelementptr inbounds nuw %struct.evbuffer, ptr %133, i32 0, i32 7
  %135 = load ptr, ptr %134, align 8
  %136 = call i32 %132(i32 noundef 0, ptr noundef %135)
  br label %137

137:                                              ; preds = %131, %126
  br label %138

138:                                              ; preds = %137
  br label %139

139:                                              ; preds = %138
  br label %140

140:                                              ; preds = %139
  br label %141

141:                                              ; preds = %140
  %142 = load i32, ptr %10, align 4
  call void @llvm.lifetime.end.p0(i64 8, ptr %12) #10
  call void @llvm.lifetime.end.p0(i64 24, ptr %11) #10
  call void @llvm.lifetime.end.p0(i64 4, ptr %10) #10
  call void @llvm.lifetime.end.p0(i64 4, ptr %9) #10
  call void @llvm.lifetime.end.p0(i64 8, ptr %8) #10
  call void @llvm.lifetime.end.p0(i64 8, ptr %7) #10
  ret i32 %142
}