; Function Attrs: nounwind uwtable
define range(i32 -1, -2147483648) i32 @evbuffer_add_vprintf(ptr noundef %0, ptr noundef %1, ptr noundef %2) local_unnamed_addr #1 {
  %4 = alloca [1 x %struct.__va_list_tag], align 16
  call void @llvm.lifetime.start.p0(i64 24, ptr nonnull %4) #16
  %5 = getelementptr inbounds nuw i8, ptr %0, i64 56
  %6 = load ptr, ptr %5, align 8
  %.not = icmp eq ptr %6, null
  br i1 %.not, label %10, label %7

7:                                                ; preds = %3
  %8 = load ptr, ptr getelementptr inbounds nuw (i8, ptr @evthread_lock_fns_, i64 24), align 8
  %9 = tail call i32 %8(i32 noundef 0, ptr noundef nonnull %6) #16
  br label %10

10:                                               ; preds = %7, %3
  %11 = getelementptr inbounds nuw i8, ptr %0, i64 64
  %12 = load i8, ptr %11, align 8
  %13 = and i8 %12, 4
  %.not38 = icmp eq i8 %13, 0
  br i1 %.not38, label %14, label %.loopexit

14:                                               ; preds = %10
  %15 = tail call fastcc ptr @evbuffer_expand_singlechain(ptr noundef nonnull %0, i64 noundef 64)
  %16 = icmp eq ptr %15, null
  br i1 %16, label %.loopexit, label %.preheader

.preheader:                                       ; preds = %14, %62
  %.0 = phi ptr [ %65, %62 ], [ %15, %14 ]
  %17 = getelementptr inbounds nuw i8, ptr %.0, i64 40
  %18 = load ptr, ptr %17, align 8
  %19 = getelementptr inbounds nuw i8, ptr %.0, i64 16
  %20 = load i64, ptr %19, align 8
  %21 = getelementptr inbounds i8, ptr %18, i64 %20
  %22 = getelementptr inbounds nuw i8, ptr %.0, i64 24
  %23 = load i64, ptr %22, align 8
  %24 = getelementptr inbounds nuw i8, ptr %21, i64 %23
  %25 = getelementptr inbounds nuw i8, ptr %.0, i64 32
  %26 = load i32, ptr %25, align 8
  %27 = and i32 %26, 8
  %.not39 = icmp eq i32 %27, 0
  br i1 %.not39, label %28, label %33

28:                                               ; preds = %.preheader
  %29 = getelementptr inbounds nuw i8, ptr %.0, i64 8
  %30 = load i64, ptr %29, align 8
  %31 = add i64 %23, %20
  %32 = sub i64 %30, %31
  br label %33

33:                                               ; preds = %.preheader, %28
  %34 = phi i64 [ %32, %28 ], [ 0, %.preheader ]
  call void @llvm.va_copy.p0(ptr nonnull %4, ptr %2)
  %35 = call i32 @evutil_vsnprintf(ptr noundef %24, i64 noundef %34, ptr noundef %1, ptr noundef nonnull %4) #16
  call void @llvm.va_end.p0(ptr nonnull %4)
  %36 = icmp slt i32 %35, 0
  br i1 %36, label %.loopexit, label %37

37:                                               ; preds = %33
  %38 = zext nneg i32 %35 to i64
  %39 = icmp ugt i64 %34, %38
  br i1 %39, label %40, label %62

40:                                               ; preds = %37
  %41 = getelementptr inbounds nuw i8, ptr %.0, i64 24
  %42 = load i64, ptr %41, align 8
  %43 = add i64 %42, %38
  store i64 %43, ptr %41, align 8
  %44 = getelementptr inbounds nuw i8, ptr %0, i64 24
  %45 = load i64, ptr %44, align 8
  %46 = add i64 %45, %38
  store i64 %46, ptr %44, align 8
  %47 = getelementptr inbounds nuw i8, ptr %0, i64 40
  %48 = load i64, ptr %47, align 8
  %49 = add i64 %48, %38
  store i64 %49, ptr %47, align 8
  %50 = getelementptr inbounds nuw i8, ptr %0, i64 16
  %51 = load ptr, ptr %50, align 8
  %52 = load ptr, ptr %51, align 8
  %.not.i = icmp eq ptr %52, null
  br i1 %.not.i, label %advance_last_with_data.exit, label %.preheader.i

.preheader.i:                                     ; preds = %40
  %53 = load ptr, ptr %52, align 8
  %.not1416.i = icmp eq ptr %53, null
  br i1 %.not1416.i, label %advance_last_with_data.exit, label %.lr.ph.i

.lr.ph.i:                                         ; preds = %.preheader.i, %59
  %54 = phi ptr [ %61, %59 ], [ %53, %.preheader.i ]
  %55 = phi ptr [ %60, %59 ], [ %52, %.preheader.i ]
  %56 = getelementptr inbounds nuw i8, ptr %54, i64 24
  %57 = load i64, ptr %56, align 8
  %.not15.i = icmp eq i64 %57, 0
  br i1 %.not15.i, label %59, label %58

58:                                               ; preds = %.lr.ph.i
  store ptr %55, ptr %50, align 8
  %.pre.i = load ptr, ptr %55, align 8
  br label %59

59:                                               ; preds = %58, %.lr.ph.i
  %60 = phi ptr [ %.pre.i, %58 ], [ %54, %.lr.ph.i ]
  %61 = load ptr, ptr %60, align 8
  %.not14.i = icmp eq ptr %61, null
  br i1 %.not14.i, label %advance_last_with_data.exit, label %.lr.ph.i, !llvm.loop !17

advance_last_with_data.exit:                      ; preds = %59, %40, %.preheader.i
  call void @evbuffer_invoke_callbacks_(ptr noundef nonnull %0)
  br label %.loopexit

62:                                               ; preds = %37
  %63 = add nuw nsw i32 %35, 1
  %64 = zext nneg i32 %63 to i64
  %65 = call fastcc ptr @evbuffer_expand_singlechain(ptr noundef nonnull %0, i64 noundef %64)
  %66 = icmp eq ptr %65, null
  br i1 %66, label %.loopexit, label %.preheader

.loopexit:                                        ; preds = %62, %33, %14, %10, %advance_last_with_data.exit
  %.031 = phi i32 [ -1, %10 ], [ -1, %14 ], [ %35, %advance_last_with_data.exit ], [ -1, %33 ], [ -1, %62 ]
  %67 = load ptr, ptr %5, align 8
  %.not40 = icmp eq ptr %67, null
  br i1 %.not40, label %71, label %68

68:                                               ; preds = %.loopexit
  %69 = load ptr, ptr getelementptr inbounds nuw (i8, ptr @evthread_lock_fns_, i64 32), align 8
  %70 = call i32 %69(i32 noundef 0, ptr noundef nonnull %67) #16
  br label %71

71:                                               ; preds = %68, %.loopexit
  call void @llvm.lifetime.end.p0(i64 24, ptr nonnull %4) #16
  ret i32 %.031
}